; Function Attrs: mustprogress nofree norecurse nosync nounwind willreturn memory(argmem: readwrite) uwtable
define noundef zeroext i1 @_ZN5Yosys16DriveChunkMarker10try_appendERKNS_14DriveBitMarkerE(ptr noundef nonnull align 4 captures(none) dereferenceable(12) %0, ptr noundef nonnull readonly align 4 captures(none) dereferenceable(8) %1) local_unnamed_addr #9 align 2 {
  %3 = load i32, ptr %1, align 4, !tbaa !79
  %4 = load i32, ptr %0, align 4, !tbaa !71
  %5 = icmp eq i32 %3, %4
  br i1 %5, label %_ZNK5Yosys16DriveChunkMarker10can_appendERKNS_14DriveBitMarkerE.exit, label %_ZNK5Yosys16DriveChunkMarker10can_appendERKNS_14DriveBitMarkerE.exit.thread

_ZNK5Yosys16DriveChunkMarker10can_appendERKNS_14DriveBitMarkerE.exit: ; preds = %2
  %6 = getelementptr inbounds nuw i8, ptr %1, i64 4
  %7 = load i32, ptr %6, align 4, !tbaa !81
  %8 = getelementptr inbounds nuw i8, ptr %0, i64 4
  %9 = load i32, ptr %8, align 4, !tbaa !73
  %10 = getelementptr inbounds nuw i8, ptr %0, i64 8
  %11 = load i32, ptr %10, align 4, !tbaa !82
  %12 = add nsw i32 %11, %9
  %13 = icmp eq i32 %7, %12
  br i1 %13, label %14, label %_ZNK5Yosys16DriveChunkMarker10can_appendERKNS_14DriveBitMarkerE.exit.thread

14:                                               ; preds = %_ZNK5Yosys16DriveChunkMarker10can_appendERKNS_14DriveBitMarkerE.exit
  %15 = add nsw i32 %11, 1
  store i32 %15, ptr %10, align 4, !tbaa !82
  br label %_ZNK5Yosys16DriveChunkMarker10can_appendERKNS_14DriveBitMarkerE.exit.thread

_ZNK5Yosys16DriveChunkMarker10can_appendERKNS_14DriveBitMarkerE.exit.thread: ; preds = %2, %_ZNK5Yosys16DriveChunkMarker10can_appendERKNS_14DriveBitMarkerE.exit, %14
  %16 = phi i1 [ false, %_ZNK5Yosys16DriveChunkMarker10can_appendERKNS_14DriveBitMarkerE.exit ], [ true, %14 ], [ false, %2 ]
  ret i1 %16
}